target datalayout = "e-m:e-p270:32:32-p271:32:32-p272:64:64-i64:64-i128:128-f80:128-n8:16:32:64-S128"
target triple = "x86_64-pc-linux-gnu"

%struct.PartitionKeyData = type { i32, i16, ptr, ptr, ptr, ptr, ptr, ptr, ptr, ptr, ptr, ptr, ptr, ptr }
%union.ListCell = type { ptr }
%struct.RelationData = type { %struct.RelFileLocator, ptr, i32, i32, i8, i8, i8, i8, i8, i32, i32, i32, i32, ptr, ptr, i32, %struct.LockInfoData, ptr, ptr, ptr, ptr, ptr, i8, ptr, ptr, ptr, ptr, ptr, ptr, i32, ptr, i8, ptr, ptr, i32, i8, i32, ptr, i8, ptr, ptr, ptr, ptr, ptr, ptr, ptr, i32, ptr, ptr, ptr, ptr, ptr, ptr, ptr, ptr, ptr, ptr, ptr, ptr, ptr, ptr, ptr, ptr, ptr, ptr, ptr, i32, i8, ptr }
%struct.RelFileLocator = type { i32, i32, i32 }
%struct.LockInfoData = type { %struct.LockRelId }
%struct.LockRelId = type { i32, i32 }
%struct.PartitionBoundSpec = type { i32, i8, i8, i32, i32, ptr, ptr, ptr, i32 }
%struct.List = type { i32, i32, i32, ptr, [0 x %union.ListCell] }

; Function Attrs: inlinehint nounwind uwtable
define internal ptr @lnext(ptr noundef %0, ptr noundef %1) #5 {
  %3 = alloca ptr, align 8
  %4 = alloca ptr, align 8
  %5 = alloca ptr, align 8
  store ptr %0, ptr %4, align 8
  store ptr %1, ptr %5, align 8
  %6 = load ptr, ptr %5, align 8
  %7 = getelementptr inbounds nuw %union.ListCell, ptr %6, i32 1
  store ptr %7, ptr %5, align 8
  %8 = load ptr, ptr %5, align 8
  %9 = load ptr, ptr %4, align 8
  %10 = getelementptr inbounds nuw %struct.List, ptr %9, i32 0, i32 3
  %11 = load ptr, ptr %10, align 8
  %12 = load ptr, ptr %4, align 8
  %13 = getelementptr inbounds nuw %struct.List, ptr %12, i32 0, i32 1
  %14 = load i32, ptr %13, align 4
  %15 = sext i32 %14 to i64
  %16 = getelementptr inbounds %union.ListCell, ptr %11, i64 %15
  %17 = icmp ult ptr %8, %16
  br i1 %17, label %18, label %20

18:                                               ; preds = %2
  %19 = load ptr, ptr %5, align 8
  store ptr %19, ptr %3, align 8
  br label %21

20:                                               ; preds = %2
  store ptr null, ptr %3, align 8
  br label %21

21:                                               ; preds = %20, %18
  %22 = load ptr, ptr %3, align 8
  ret ptr %22
}

; Function Attrs: inlinehint nounwind uwtable
define internal ptr @list_head(ptr noundef %0) #5 {
  %2 = alloca ptr, align 8
  store ptr %0, ptr %2, align 8
  %3 = load ptr, ptr %2, align 8
  %4 = icmp ne ptr %3, null
  br i1 %4, label %5, label %10

5:                                                ; preds = %1
  %6 = load ptr, ptr %2, align 8
  %7 = getelementptr inbounds nuw %struct.List, ptr %6, i32 0, i32 3
  %8 = load ptr, ptr %7, align 8
  %9 = getelementptr inbounds %union.ListCell, ptr %8, i64 0
  br label %11

10:                                               ; preds = %1
  br label %11

11:                                               ; preds = %10, %5
  %12 = phi ptr [ %9, %5 ], [ null, %10 ]
  ret ptr %12
}

; Function Attrs: inlinehint nounwind uwtable
define internal i64 @Int32GetDatum(i32 noundef %0) #5 {
  %2 = alloca i32, align 4
  store i32 %0, ptr %2, align 4
  %3 = load i32, ptr %2, align 4
  %4 = sext i32 %3 to i64
  ret i64 %4
}

; Function Attrs: inlinehint nounwind uwtable
define internal i64 @ObjectIdGetDatum(i32 noundef %0) #5 {
  %2 = alloca i32, align 4
  store i32 %0, ptr %2, align 4
  %3 = load i32, ptr %2, align 4
  %4 = zext i32 %3 to i64
  ret i64 %4
}

; Function Attrs: nounwind uwtable
define internal ptr @get_qual_for_hash(ptr noundef %0, ptr noundef %1) #0 {
  %3 = alloca ptr, align 8
  %4 = alloca ptr, align 8
  %5 = alloca ptr, align 8
  %6 = alloca ptr, align 8
  %7 = alloca ptr, align 8
  %8 = alloca ptr, align 8
  %9 = alloca ptr, align 8
  %10 = alloca ptr, align 8
  %11 = alloca ptr, align 8
  %12 = alloca i32, align 4
  %13 = alloca %union.ListCell, align 8
  %14 = alloca %union.ListCell, align 8
  %15 = alloca %union.ListCell, align 8
  %16 = alloca ptr, align 8
  %17 = alloca %union.ListCell, align 8
  store ptr %0, ptr %3, align 8
  store ptr %1, ptr %4, align 8
  call void @llvm.lifetime.start.p0(i64 8, ptr %5) #9
  %18 = load ptr, ptr %3, align 8
  %19 = call ptr @RelationGetPartitionKey(ptr noundef %18)
  store ptr %19, ptr %5, align 8
  call void @llvm.lifetime.start.p0(i64 8, ptr %6) #9
  call void @llvm.lifetime.start.p0(i64 8, ptr %7) #9
  call void @llvm.lifetime.start.p0(i64 8, ptr %8) #9
  call void @llvm.lifetime.start.p0(i64 8, ptr %9) #9
  call void @llvm.lifetime.start.p0(i64 8, ptr %10) #9
  call void @llvm.lifetime.start.p0(i64 8, ptr %11) #9
  call void @llvm.lifetime.start.p0(i64 4, ptr %12) #9
  %20 = load ptr, ptr %3, align 8
  %21 = getelementptr inbounds nuw %struct.RelationData, ptr %20, i32 0, i32 15
  %22 = load i32, ptr %21, align 8
  %23 = call i64 @ObjectIdGetDatum(i32 noundef %22)
  %24 = call ptr @makeConst(i32 noundef 26, i32 noundef -1, i32 noundef 0, i32 noundef 4, i64 noundef %23, i1 noundef zeroext false, i1 noundef zeroext true)
  store ptr %24, ptr %7, align 8
  %25 = load ptr, ptr %4, align 8
  %26 = getelementptr inbounds nuw %struct.PartitionBoundSpec, ptr %25, i32 0, i32 3
  %27 = load i32, ptr %26, align 8
  %28 = call i64 @Int32GetDatum(i32 noundef %27)
  %29 = call ptr @makeConst(i32 noundef 23, i32 noundef -1, i32 noundef 0, i32 noundef 4, i64 noundef %28, i1 noundef zeroext false, i1 noundef zeroext true)
  store ptr %29, ptr %8, align 8
  %30 = load ptr, ptr %4, align 8
  %31 = getelementptr inbounds nuw %struct.PartitionBoundSpec, ptr %30, i32 0, i32 4
  %32 = load i32, ptr %31, align 4
  %33 = call i64 @Int32GetDatum(i32 noundef %32)
  %34 = call ptr @makeConst(i32 noundef 23, i32 noundef -1, i32 noundef 0, i32 noundef 4, i64 noundef %33, i1 noundef zeroext false, i1 noundef zeroext true)
  store ptr %34, ptr %9, align 8
  %35 = load ptr, ptr %7, align 8
  store ptr %35, ptr %13, align 8
  %36 = load ptr, ptr %8, align 8
  store ptr %36, ptr %14, align 8
  %37 = load ptr, ptr %9, align 8
  store ptr %37, ptr %15, align 8
  %38 = getelementptr inbounds nuw %union.ListCell, ptr %13, i32 0, i32 0
  %39 = load ptr, ptr %38, align 8
  %40 = getelementptr inbounds nuw %union.ListCell, ptr %14, i32 0, i32 0
  %41 = load ptr, ptr %40, align 8
  %42 = getelementptr inbounds nuw %union.ListCell, ptr %15, i32 0, i32 0
  %43 = load ptr, ptr %42, align 8
  %44 = call ptr @list_make3_impl(i32 noundef 1, ptr %39, ptr %41, ptr %43)
  store ptr %44, ptr %10, align 8
  %45 = load ptr, ptr %5, align 8
  %46 = getelementptr inbounds nuw %struct.PartitionKeyData, ptr %45, i32 0, i32 3
  %47 = load ptr, ptr %46, align 8
  %48 = call ptr @list_head(ptr noundef %47)
  store ptr %48, ptr %11, align 8
  store i32 0, ptr %12, align 4
  br label %49

49:                                               ; preds = %109, %2
  %50 = load i32, ptr %12, align 4
  %51 = load ptr, ptr %5, align 8
  %52 = getelementptr inbounds nuw %struct.PartitionKeyData, ptr %51, i32 0, i32 1
  %53 = load i16, ptr %52, align 4
  %54 = sext i16 %53 to i32
  %55 = icmp slt i32 %50, %54
  br i1 %55, label %56, label %112

56:                                               ; preds = %49
  call void @llvm.lifetime.start.p0(i64 8, ptr %16) #9
  %57 = load ptr, ptr %5, align 8
  %58 = getelementptr inbounds nuw %struct.PartitionKeyData, ptr %57, i32 0, i32 2
  %59 = load ptr, ptr %58, align 8
  %60 = load i32, ptr %12, align 4
  %61 = sext i32 %60 to i64
  %62 = getelementptr inbounds i16, ptr %59, i64 %61
  %63 = load i16, ptr %62, align 2
  %64 = sext i16 %63 to i32
  %65 = icmp ne i32 %64, 0
  br i1 %65, label %66, label %96

66:                                               ; preds = %56
  %67 = load ptr, ptr %5, align 8
  %68 = getelementptr inbounds nuw %struct.PartitionKeyData, ptr %67, i32 0, i32 2
  %69 = load ptr, ptr %68, align 8
  %70 = load i32, ptr %12, align 4
  %71 = sext i32 %70 to i64
  %72 = getelementptr inbounds i16, ptr %69, i64 %71
  %73 = load i16, ptr %72, align 2
  %74 = load ptr, ptr %5, align 8
  %75 = getelementptr inbounds nuw %struct.PartitionKeyData, ptr %74, i32 0, i32 8
  %76 = load ptr, ptr %75, align 8
  %77 = load i32, ptr %12, align 4
  %78 = sext i32 %77 to i64
  %79 = getelementptr inbounds i32, ptr %76, i64 %78
  %80 = load i32, ptr %79, align 4
  %81 = load ptr, ptr %5, align 8
  %82 = getelementptr inbounds nuw %struct.PartitionKeyData, ptr %81, i32 0, i32 9
  %83 = load ptr, ptr %82, align 8
  %84 = load i32, ptr %12, align 4
  %85 = sext i32 %84 to i64
  %86 = getelementptr inbounds i32, ptr %83, i64 %85
  %87 = load i32, ptr %86, align 4
  %88 = load ptr, ptr %5, align 8
  %89 = getelementptr inbounds nuw %struct.PartitionKeyData, ptr %88, i32 0, i32 13
  %90 = load ptr, ptr %89, align 8
  %91 = load i32, ptr %12, align 4
  %92 = sext i32 %91 to i64
  %93 = getelementptr inbounds i32, ptr %90, i64 %92
  %94 = load i32, ptr %93, align 4
  %95 = call ptr @makeVar(i32 noundef 1, i16 noundef signext %73, i32 noundef %80, i32 noundef %87, i32 noundef %94, i32 noundef 0)
  store ptr %95, ptr %16, align 8
  br label %105

96:                                               ; preds = %56
  %97 = load ptr, ptr %11, align 8
  %98 = load ptr, ptr %97, align 8
  %99 = call ptr @copyObjectImpl(ptr noundef %98)
  store ptr %99, ptr %16, align 8
  %100 = load ptr, ptr %5, align 8
  %101 = getelementptr inbounds nuw %struct.PartitionKeyData, ptr %100, i32 0, i32 3
  %102 = load ptr, ptr %101, align 8
  %103 = load ptr, ptr %11, align 8
  %104 = call ptr @lnext(ptr noundef %102, ptr noundef %103)
  store ptr %104, ptr %11, align 8
  br label %105

105:                                              ; preds = %96, %66
  %106 = load ptr, ptr %10, align 8
  %107 = load ptr, ptr %16, align 8
  %108 = call ptr @lappend(ptr noundef %106, ptr noundef %107)
  store ptr %108, ptr %10, align 8
  call void @llvm.lifetime.end.p0(i64 8, ptr %16) #9
  br label %109

109:                                              ; preds = %105
  %110 = load i32, ptr %12, align 4
  %111 = add i32 %110, 1
  store i32 %111, ptr %12, align 4
  br label %49, !llvm.loop !4

112:                                              ; preds = %49
  %113 = load ptr, ptr %10, align 8
  %114 = call ptr @makeFuncExpr(i32 noundef 5028, i32 noundef 16, ptr noundef %113, i32 noundef 0, i32 noundef 0, i32 noundef 0)
  store ptr %114, ptr %6, align 8
  %115 = load ptr, ptr %6, align 8
  store ptr %115, ptr %17, align 8
  %116 = getelementptr inbounds nuw %union.ListCell, ptr %17, i32 0, i32 0
  %117 = load ptr, ptr %116, align 8
  %118 = call ptr @list_make1_impl(i32 noundef 1, ptr %117)
  call void @llvm.lifetime.end.p0(i64 4, ptr %12) #9
  call void @llvm.lifetime.end.p0(i64 8, ptr %11) #9
  call void @llvm.lifetime.end.p0(i64 8, ptr %10) #9
  call void @llvm.lifetime.end.p0(i64 8, ptr %9) #9
  call void @llvm.lifetime.end.p0(i64 8, ptr %8) #9
  call void @llvm.lifetime.end.p0(i64 8, ptr %7) #9
  call void @llvm.lifetime.end.p0(i64 8, ptr %6) #9
  call void @llvm.lifetime.end.p0(i64 8, ptr %5) #9
  ret ptr %118
}

; Function Attrs: nounwind uwtable
define dso_local ptr @get_qual_from_partbound(ptr noundef %0, ptr noundef %1) #0 {
  %3 = alloca ptr, align 8
  %4 = alloca ptr, align 8
  %5 = alloca ptr, align 8
  %6 = alloca ptr, align 8
  store ptr %0, ptr %3, align 8
  store ptr %1, ptr %4, align 8
  call void @llvm.lifetime.start.p0(i64 8, ptr %5) #9
  %7 = load ptr, ptr %3, align 8
  %8 = call ptr @RelationGetPartitionKey(ptr noundef %7)
  store ptr %8, ptr %5, align 8
  call void @llvm.lifetime.start.p0(i64 8, ptr %6) #9
  store ptr null, ptr %6, align 8
  %9 = load ptr, ptr %5, align 8
  %10 = getelementptr inbounds nuw %struct.PartitionKeyData, ptr %9, i32 0, i32 0
  %11 = load i32, ptr %10, align 8
  switch i32 %11, label %24 [
    i32 104, label %12
    i32 108, label %16
    i32 114, label %20
  ]

12:                                               ; preds = %2
  %13 = load ptr, ptr %3, align 8
  %14 = load ptr, ptr %4, align 8
  %15 = call ptr @get_qual_for_hash(ptr noundef %13, ptr noundef %14)
  store ptr %15, ptr %6, align 8
  br label %24

16:                                               ; preds = %2
  %17 = load ptr, ptr %3, align 8
  %18 = load ptr, ptr %4, align 8
  %19 = call ptr @get_qual_for_list(ptr noundef %17, ptr noundef %18)
  store ptr %19, ptr %6, align 8
  br label %24

20:                                               ; preds = %2
  %21 = load ptr, ptr %3, align 8
  %22 = load ptr, ptr %4, align 8
  %23 = call ptr @get_qual_for_range(ptr noundef %21, ptr noundef %22, i1 noundef zeroext false)
  store ptr %23, ptr %6, align 8
  br label %24

24:                                               ; preds = %2, %20, %16, %12
  %25 = load ptr, ptr %6, align 8
  call void @llvm.lifetime.end.p0(i64 8, ptr %6) #9
  call void @llvm.lifetime.end.p0(i64 8, ptr %5) #9
  ret ptr %25
}