; Function Attrs: nounwind uwtable
define dso_local ptr @get_qual_from_partbound(ptr noundef %0, ptr noundef readonly captures(none) %1) local_unnamed_addr #0 {
  %3 = tail call ptr @RelationGetPartitionKey(ptr noundef %0) #12
  %4 = load i32, ptr %3, align 8
  switch i32 %4, label %69 [
    i32 104, label %5
    i32 108, label %65
    i32 114, label %67
  ]

5:                                                ; preds = %2
  %6 = tail call ptr @RelationGetPartitionKey(ptr noundef %0) #12
  %7 = getelementptr inbounds nuw i8, ptr %0, i64 72
  %8 = load i32, ptr %7, align 8
  %9 = zext i32 %8 to i64
  %10 = tail call ptr @makeConst(i32 noundef 26, i32 noundef -1, i32 noundef 0, i32 noundef 4, i64 noundef %9, i1 noundef zeroext false, i1 noundef zeroext true) #12
  %11 = getelementptr inbounds nuw i8, ptr %1, i64 8
  %12 = load i32, ptr %11, align 8
  %13 = sext i32 %12 to i64
  %14 = tail call ptr @makeConst(i32 noundef 23, i32 noundef -1, i32 noundef 0, i32 noundef 4, i64 noundef %13, i1 noundef zeroext false, i1 noundef zeroext true) #12
  %15 = getelementptr inbounds nuw i8, ptr %1, i64 12
  %16 = load i32, ptr %15, align 4
  %17 = sext i32 %16 to i64
  %18 = tail call ptr @makeConst(i32 noundef 23, i32 noundef -1, i32 noundef 0, i32 noundef 4, i64 noundef %17, i1 noundef zeroext false, i1 noundef zeroext true) #12
  %19 = tail call ptr @list_make3_impl(i32 noundef 1, ptr %10, ptr %14, ptr %18) #12
  %20 = getelementptr inbounds nuw i8, ptr %6, i64 16
  %21 = load ptr, ptr %20, align 8
  %.not.i.i = icmp eq ptr %21, null
  br i1 %.not.i.i, label %list_head.exit.i, label %22

22:                                               ; preds = %5
  %23 = getelementptr inbounds nuw i8, ptr %21, i64 16
  %24 = load ptr, ptr %23, align 8
  br label %list_head.exit.i

list_head.exit.i:                                 ; preds = %22, %5
  %25 = phi ptr [ %24, %22 ], [ null, %5 ]
  %26 = getelementptr inbounds nuw i8, ptr %6, i64 4
  %27 = load i16, ptr %26, align 4
  %28 = icmp sgt i16 %27, 0
  br i1 %28, label %.lr.ph.i, label %get_qual_for_hash.exit

.lr.ph.i:                                         ; preds = %list_head.exit.i
  %29 = getelementptr inbounds nuw i8, ptr %6, i64 8
  %30 = getelementptr inbounds nuw i8, ptr %6, i64 56
  %31 = getelementptr inbounds nuw i8, ptr %6, i64 64
  %32 = getelementptr inbounds nuw i8, ptr %6, i64 96
  br label %33

33:                                               ; preds = %58, %.lr.ph.i
  %indvars.iv.i = phi i64 [ 0, %.lr.ph.i ], [ %indvars.iv.next.i, %58 ]
  %.036.i = phi ptr [ %19, %.lr.ph.i ], [ %59, %58 ]
  %.03135.i = phi ptr [ %25, %.lr.ph.i ], [ %.1.i, %58 ]
  %34 = load ptr, ptr %29, align 8
  %35 = getelementptr inbounds nuw i16, ptr %34, i64 %indvars.iv.i
  %36 = load i16, ptr %35, align 2
  %.not.i = icmp eq i16 %36, 0
  br i1 %.not.i, label %48, label %37

37:                                               ; preds = %33
  %38 = load ptr, ptr %30, align 8
  %39 = getelementptr inbounds nuw i32, ptr %38, i64 %indvars.iv.i
  %40 = load i32, ptr %39, align 4
  %41 = load ptr, ptr %31, align 8
  %42 = getelementptr inbounds nuw i32, ptr %41, i64 %indvars.iv.i
  %43 = load i32, ptr %42, align 4
  %44 = load ptr, ptr %32, align 8
  %45 = getelementptr inbounds nuw i32, ptr %44, i64 %indvars.iv.i
  %46 = load i32, ptr %45, align 4
  %47 = tail call ptr @makeVar(i32 noundef 1, i16 noundef signext %36, i32 noundef %40, i32 noundef %43, i32 noundef %46, i32 noundef 0) #12
  br label %58

48:                                               ; preds = %33
  %49 = load ptr, ptr %.03135.i, align 8
  %50 = tail call ptr @copyObjectImpl(ptr noundef %49) #12
  %51 = load ptr, ptr %20, align 8
  %52 = getelementptr i8, ptr %51, i64 4
  %.val.i = load i32, ptr %52, align 4
  %53 = getelementptr i8, ptr %51, i64 16
  %.val33.i = load ptr, ptr %53, align 8
  %54 = getelementptr inbounds nuw i8, ptr %.03135.i, i64 8
  %55 = sext i32 %.val.i to i64
  %56 = getelementptr inbounds %union.ListCell, ptr %.val33.i, i64 %55
  %57 = icmp ult ptr %54, %56
  %..i.i = select i1 %57, ptr %54, ptr null
  br label %58

58:                                               ; preds = %48, %37
  %.1.i = phi ptr [ %.03135.i, %37 ], [ %..i.i, %48 ]
  %.030.i = phi ptr [ %47, %37 ], [ %50, %48 ]
  %59 = tail call ptr @lappend(ptr noundef %.036.i, ptr noundef %.030.i) #12
  %indvars.iv.next.i = add nuw nsw i64 %indvars.iv.i, 1
  %60 = load i16, ptr %26, align 4
  %61 = sext i16 %60 to i64
  %62 = icmp slt i64 %indvars.iv.next.i, %61
  br i1 %62, label %33, label %get_qual_for_hash.exit, !llvm.loop !4

get_qual_for_hash.exit:                           ; preds = %58, %list_head.exit.i
  %.0.lcssa.i = phi ptr [ %19, %list_head.exit.i ], [ %59, %58 ]
  %63 = tail call ptr @makeFuncExpr(i32 noundef 5028, i32 noundef 16, ptr noundef %.0.lcssa.i, i32 noundef 0, i32 noundef 0, i32 noundef 0) #12
  %64 = tail call ptr @list_make1_impl(i32 noundef 1, ptr %63) #12
  br label %69

65:                                               ; preds = %2
  %66 = tail call fastcc ptr @get_qual_for_list(ptr noundef %0, ptr noundef %1)
  br label %69

67:                                               ; preds = %2
  %68 = tail call fastcc ptr @get_qual_for_range(ptr noundef %0, ptr noundef %1, i1 noundef zeroext false)
  br label %69

69:                                               ; preds = %67, %65, %get_qual_for_hash.exit, %2
  %.0 = phi ptr [ null, %2 ], [ %68, %67 ], [ %66, %65 ], [ %64, %get_qual_for_hash.exit ]
  ret ptr %.0
}